target datalayout = "e-m:e-p270:32:32-p271:32:32-p272:64:64-i64:64-i128:128-f80:128-n8:16:32:64-S128"
target triple = "x86_64-unknown-linux-gnu"

%struct.tm = type { i32, i32, i32, i32, i32, i32, i32, i32, i32, i64, ptr }

; Function Attrs: mustprogress uwtable
define dso_local void @_ZN2EA4StdC12DateTimeToTmERKNS0_8DateTimeER2tm(ptr noundef nonnull align 8 dereferenceable(12) %dateTime, ptr noundef nonnull align 8 dereferenceable(56) %time) #0 {
entry:
  %dateTime.addr = alloca ptr, align 8
  %time.addr = alloca ptr, align 8
  store ptr %dateTime, ptr %dateTime.addr, align 8
  store ptr %time, ptr %time.addr, align 8
  %0 = load ptr, ptr %dateTime.addr, align 8
  %call = call noundef i32 @_ZNK2EA4StdC8DateTime12GetParameterENS0_9ParameterE(ptr noundef nonnull align 8 dereferenceable(12) %0, i32 noundef 10)
  %1 = load ptr, ptr %time.addr, align 8
  %tm_sec = getelementptr inbounds %struct.tm, ptr %1, i32 0, i32 0
  store i32 %call, ptr %tm_sec, align 8
  %2 = load ptr, ptr %dateTime.addr, align 8
  %call1 = call noundef i32 @_ZNK2EA4StdC8DateTime12GetParameterENS0_9ParameterE(ptr noundef nonnull align 8 dereferenceable(12) %2, i32 noundef 9)
  %3 = load ptr, ptr %time.addr, align 8
  %tm_min = getelementptr inbounds %struct.tm, ptr %3, i32 0, i32 1
  store i32 %call1, ptr %tm_min, align 4
  %4 = load ptr, ptr %dateTime.addr, align 8
  %call2 = call noundef i32 @_ZNK2EA4StdC8DateTime12GetParameterENS0_9ParameterE(ptr noundef nonnull align 8 dereferenceable(12) %4, i32 noundef 8)
  %5 = load ptr, ptr %time.addr, align 8
  %tm_hour = getelementptr inbounds %struct.tm, ptr %5, i32 0, i32 2
  store i32 %call2, ptr %tm_hour, align 8
  %6 = load ptr, ptr %dateTime.addr, align 8
  %call3 = call noundef i32 @_ZNK2EA4StdC8DateTime12GetParameterENS0_9ParameterE(ptr noundef nonnull align 8 dereferenceable(12) %6, i32 noundef 6)
  %7 = load ptr, ptr %time.addr, align 8
  %tm_mday = getelementptr inbounds %struct.tm, ptr %7, i32 0, i32 3
  store i32 %call3, ptr %tm_mday, align 4
  %8 = load ptr, ptr %dateTime.addr, align 8
  %call4 = call noundef i32 @_ZNK2EA4StdC8DateTime12GetParameterENS0_9ParameterE(ptr noundef nonnull align 8 dereferenceable(12) %8, i32 noundef 2)
  %sub = sub nsw i32 %call4, 1
  %9 = load ptr, ptr %time.addr, align 8
  %tm_mon = getelementptr inbounds %struct.tm, ptr %9, i32 0, i32 4
  store i32 %sub, ptr %tm_mon, align 8
  %10 = load ptr, ptr %dateTime.addr, align 8
  %call5 = call noundef i32 @_ZNK2EA4StdC8DateTime12GetParameterENS0_9ParameterE(ptr noundef nonnull align 8 dereferenceable(12) %10, i32 noundef 1)
  %sub6 = sub nsw i32 %call5, 1900
  %11 = load ptr, ptr %time.addr, align 8
  %tm_year = getelementptr inbounds %struct.tm, ptr %11, i32 0, i32 5
  store i32 %sub6, ptr %tm_year, align 4
  %12 = load ptr, ptr %dateTime.addr, align 8
  %call7 = call noundef i32 @_ZNK2EA4StdC8DateTime12GetParameterENS0_9ParameterE(ptr noundef nonnull align 8 dereferenceable(12) %12, i32 noundef 7)
  %sub8 = sub nsw i32 %call7, 1
  %13 = load ptr, ptr %time.addr, align 8
  %tm_wday = getelementptr inbounds %struct.tm, ptr %13, i32 0, i32 6
  store i32 %sub8, ptr %tm_wday, align 8
  %14 = load ptr, ptr %dateTime.addr, align 8
  %call9 = call noundef i32 @_ZNK2EA4StdC8DateTime12GetParameterENS0_9ParameterE(ptr noundef nonnull align 8 dereferenceable(12) %14, i32 noundef 5)
  %sub10 = sub nsw i32 %call9, 1
  %15 = load ptr, ptr %time.addr, align 8
  %tm_yday = getelementptr inbounds %struct.tm, ptr %15, i32 0, i32 7
  store i32 %sub10, ptr %tm_yday, align 4
  %16 = load ptr, ptr %time.addr, align 8
  %tm_isdst = getelementptr inbounds %struct.tm, ptr %16, i32 0, i32 8
  store i32 0, ptr %tm_isdst, align 8
  ret void
}