; Function Attrs: mustprogress nofree nosync nounwind willreturn memory(argmem: readwrite) uwtable
define dso_local void @_ZN2EA4StdC12DateTimeToTmERKNS0_8DateTimeER2tm(ptr noundef nonnull align 8 dereferenceable(12) %dateTime, ptr noundef nonnull writeonly align 8 captures(none) dereferenceable(56) initializes((0, 36)) %time) local_unnamed_addr #8 {
entry:
  %0 = load i64, ptr %dateTime, align 8
  %rem80.i = srem i64 %0, 60
  %conv81.i = trunc nsw i64 %rem80.i to i32
  store i32 %conv81.i, ptr %time, align 8
  %1 = load i64, ptr %dateTime, align 8
  %div75.i = sdiv i64 %1, 60
  %rem76.i = srem i64 %div75.i, 60
  %conv77.i = trunc nsw i64 %rem76.i to i32
  %tm_min = getelementptr inbounds nuw i8, ptr %time, i64 4
  store i32 %conv77.i, ptr %tm_min, align 4
  %2 = load i64, ptr %dateTime, align 8
  %div70.i = sdiv i64 %2, 3600
  %rem71.i = srem i64 %div70.i, 24
  %conv72.i = trunc nsw i64 %rem71.i to i32
  %tm_hour = getelementptr inbounds nuw i8, ptr %time, i64 8
  store i32 %conv72.i, ptr %tm_hour, align 8
  %call3 = tail call noundef i32 @_ZNK2EA4StdC8DateTime12GetParameterENS0_9ParameterE(ptr noundef nonnull align 8 dereferenceable(12) %dateTime, i32 noundef 6)
  %tm_mday = getelementptr inbounds nuw i8, ptr %time, i64 12
  store i32 %call3, ptr %tm_mday, align 4
  %call4 = tail call noundef i32 @_ZNK2EA4StdC8DateTime12GetParameterENS0_9ParameterE(ptr noundef nonnull align 8 dereferenceable(12) %dateTime, i32 noundef 2)
  %sub = add nsw i32 %call4, -1
  %tm_mon = getelementptr inbounds nuw i8, ptr %time, i64 16
  store i32 %sub, ptr %tm_mon, align 8
  %3 = load i64, ptr %dateTime, align 8
  %div.i = sdiv i64 %3, 86400
  %div2.i = sdiv i64 %3, 31536000
  %sub.i = add nsw i64 %div2.i, -1
  %div3.neg.i = sdiv i64 %sub.i, -4
  %div6.neg.neg.i = sdiv i64 %sub.i, 100
  %div10.neg.i = sdiv i64 %sub.i, -400
  %sub7.neg.i = add nsw i64 %div.i, -1
  %add.neg.i = add nsw i64 %sub7.neg.i, %div3.neg.i
  %sub11.i = add nsw i64 %add.neg.i, %div6.neg.neg.i
  %sub12.i = add nsw i64 %sub11.i, %div10.neg.i
  %div13.i = sdiv i64 %sub12.i, 365
  %conv.i = trunc i64 %div13.i to i32
  %sub6 = add i32 %conv.i, -1899
  %tm_year = getelementptr inbounds nuw i8, ptr %time, i64 20
  store i32 %sub6, ptr %tm_year, align 4
  %4 = load i64, ptr %dateTime, align 8
  %div65.i = sdiv i64 %4, 86400
  %rem.i = srem i64 %div65.i, 7
  %conv66.i = trunc nsw i64 %rem.i to i32
  %tm_wday = getelementptr inbounds nuw i8, ptr %time, i64 24
  store i32 %conv66.i, ptr %tm_wday, align 8
  %5 = load i64, ptr %dateTime, align 8
  %div.i14.i = sdiv i64 %5, 86400
  %div2.i15.i = sdiv i64 %5, 31536000
  %sub.i16.i = add nsw i64 %div2.i15.i, -1
  %div3.neg.i17.i = sdiv i64 %sub.i16.i, -4
  %div6.neg.neg.i18.i = sdiv i64 %sub.i16.i, 100
  %div10.neg.i20.i = sdiv i64 %sub.i16.i, -400
  %sub7.neg.i19.i = add nsw i64 %div.i14.i, -1
  %add.neg.i21.i = add nsw i64 %sub7.neg.i19.i, %div3.neg.i17.i
  %sub11.i22.i = add nsw i64 %add.neg.i21.i, %div6.neg.neg.i18.i
  %sub12.i23.i = add nsw i64 %sub11.i22.i, %div10.neg.i20.i
  %div13.i24.i = sdiv i64 %sub12.i23.i, 365
  %conv.i25.i = trunc i64 %div13.i24.i to i32
  %div3213.i = lshr i32 %conv.i25.i, 2
  %div34.i = udiv i32 %conv.i25.i, 100
  %sub35.i = sub nsw i32 %div3213.i, %div34.i
  %div37.i = udiv i32 %conv.i25.i, 400
  %add38.i = add nsw i32 %sub35.i, %div37.i
  %mul40.i = mul i32 %conv.i25.i, 365
  %add41.i = add i32 %add38.i, %mul40.i
  %6 = trunc i64 %div.i14.i to i32
  %cmp45.i = icmp eq i32 %add41.i, %6
  %7 = xor i32 %add41.i, -1
  %8 = add i32 %7, %6
  %sub10 = select i1 %cmp45.i, i32 0, i32 %8
  %tm_yday = getelementptr inbounds nuw i8, ptr %time, i64 28
  store i32 %sub10, ptr %tm_yday, align 4
  %tm_isdst = getelementptr inbounds nuw i8, ptr %time, i64 32
  store i32 0, ptr %tm_isdst, align 8
  ret void
}